; ModuleID = '26/1112.c'
source_filename = "26/1112.c"
target datalayout = "e-m:e-p270:32:32-p271:32:32-p272:64:64-i64:64-f80:128-n8:16:32:64-S128"
target triple = "x86_64-pc-linux-gnu"

@.str = private unnamed_addr constant [3 x i8] c"%c\00", align 1

; Function Attrs: noinline nounwind uwtable
define dso_local i32 @main(i32 %0, i8** %1) #0 {
  %3 = alloca i32, align 4
  %4 = alloca i32, align 4
  %5 = alloca i8**, align 8
  %6 = alloca i8*, align 8
  %7 = alloca [101 x i8], align 16
  store i32 0, i32* %3, align 4
  store i32 %0, i32* %4, align 4
  store i8** %1, i8*** %5, align 8
  %8 = getelementptr inbounds [101 x i8], [101 x i8]* %7, i64 0, i64 0
  %9 = call i32 (i8*, ...) bitcast (i32 (...)* @gets to i32 (i8*, ...)*)(i8* %8)
  %10 = sext i32 %9 to i64
  %11 = inttoptr i64 %10 to i8*
  store i8* %11, i8** %6, align 8
  br label %12

12:                                               ; preds = %33, %2
  %13 = load i8*, i8** %6, align 8
  %14 = load i8, i8* %13, align 1
  %15 = icmp ne i8 %14, 0
  br i1 %15, label %16, label %36

16:                                               ; preds = %12
  %17 = load i8*, i8** %6, align 8
  %18 = load i8, i8* %17, align 1
  %19 = sext i8 %18 to i32
  %20 = icmp eq i32 %19, 32
  br i1 %20, label %21, label %28

21:                                               ; preds = %16
  %22 = load i8*, i8** %6, align 8
  %23 = getelementptr inbounds i8, i8* %22, i64 -1
  %24 = load i8, i8* %23, align 1
  %25 = sext i8 %24 to i32
  %26 = icmp eq i32 %25, 32
  br i1 %26, label %27, label %28

27:                                               ; preds = %21
  br label %33

28:                                               ; preds = %21, %16
  %29 = load i8*, i8** %6, align 8
  %30 = load i8, i8* %29, align 1
  %31 = sext i8 %30 to i32
  %32 = call i32 (i8*, ...) @printf(i8* getelementptr inbounds ([3 x i8], [3 x i8]* @.str, i64 0, i64 0), i32 %31)
  br label %33

33:                                               ; preds = %28, %27
  %34 = load i8*, i8** %6, align 8
  %35 = getelementptr inbounds i8, i8* %34, i32 1
  store i8* %35, i8** %6, align 8
  br label %12

36:                                               ; preds = %12
  ret i32 0
}

declare dso_local i32 @gets(...) #1

declare dso_local i32 @printf(i8*, ...) #1


!llvm.module.flags = !{!0}
!llvm.ident = !{!1}

!0 = !{i32 1, !"wchar_size", i32 4}
!1 = !{!"clang version 10.0.0-4ubuntu1 "}
